target datalayout = "e-m:e-p270:32:32-p271:32:32-p272:64:64-i64:64-i128:128-f80:128-n8:16:32:64-S128"
target triple = "x86_64-pc-linux-gnu"

%struct.Expr_ = type { ptr, %union.SourceSpan, i16, %union.anon.29 }
%union.SourceSpan = type { i64 }
%union.anon.29 = type { %struct.ExprAnySwitch }
%struct.ExprAnySwitch = type { i8, %union.anon.31 }
%union.anon.31 = type { %struct.anon.32 }
%struct.anon.32 = type { ptr, %union.SourceSpan, ptr }
%struct.Type_ = type { i32, ptr, ptr, ptr, %union.anon.85, ptr, ptr, %union.anon.87 }
%union.anon.85 = type { ptr }
%union.anon.87 = type { %struct.TypeFunction }
%struct.TypeFunction = type { ptr, ptr, ptr }

; Function Attrs: nounwind uwtable
define dso_local void @cast_to_int_to_max_bit_size(ptr noundef %0, ptr noundef %1, ptr noundef %2, ptr noundef %3, ptr noundef %4) #0 {
  %6 = alloca i1, align 1
  %7 = alloca ptr, align 8
  %8 = alloca i32, align 4
  %9 = alloca i1, align 1
  %10 = alloca ptr, align 8
  %11 = alloca i32, align 4
  %12 = alloca ptr, align 8
  %13 = alloca ptr, align 8
  %14 = alloca ptr, align 8
  %15 = alloca ptr, align 8
  %16 = alloca ptr, align 8
  %17 = alloca i32, align 4
  %18 = alloca i32, align 4
  %19 = alloca ptr, align 8
  %20 = alloca ptr, align 8
  store ptr %0, ptr %12, align 8
  store ptr %1, ptr %13, align 8
  store ptr %2, ptr %14, align 8
  store ptr %3, ptr %15, align 8
  store ptr %4, ptr %16, align 8
  %21 = load ptr, ptr %15, align 8
  %22 = getelementptr inbounds %struct.Type_, ptr %21, i32 0, i32 7
  %23 = load i32, ptr %22, align 8
  %24 = and i32 %23, 255
  store i32 %24, ptr %17, align 4
  %25 = load ptr, ptr %16, align 8
  %26 = getelementptr inbounds %struct.Type_, ptr %25, i32 0, i32 7
  %27 = load i32, ptr %26, align 8
  %28 = and i32 %27, 255
  store i32 %28, ptr %18, align 4
  %29 = load i32, ptr %17, align 4
  %30 = load i32, ptr %18, align 4
  %31 = icmp eq i32 %29, %30
  br i1 %31, label %32, label %33

32:                                               ; preds = %5
  br label %119

33:                                               ; preds = %5
  %34 = load i32, ptr %17, align 4
  %35 = load i32, ptr %18, align 4
  %36 = icmp ult i32 %34, %35
  br i1 %36, label %37, label %78

37:                                               ; preds = %33
  %38 = load ptr, ptr %13, align 8
  %39 = getelementptr inbounds %struct.Expr_, ptr %38, i32 0, i32 0
  %40 = load ptr, ptr %39, align 8
  %41 = getelementptr inbounds %struct.Type_, ptr %40, i32 0, i32 0
  %42 = load i32, ptr %41, align 8
  %43 = icmp ult i32 %42, 8
  br i1 %43, label %44, label %48

44:                                               ; preds = %37
  %45 = load i32, ptr %18, align 4
  %46 = zext i32 %45 to i64
  %47 = call ptr @type_int_signed_by_bitsize(i64 noundef %46)
  br label %52

48:                                               ; preds = %37
  %49 = load i32, ptr %18, align 4
  %50 = zext i32 %49 to i64
  %51 = call ptr @type_int_unsigned_by_bitsize(i64 noundef %50)
  br label %52

52:                                               ; preds = %48, %44
  %53 = phi ptr [ %47, %44 ], [ %51, %48 ]
  store ptr %53, ptr %19, align 8
  %54 = load ptr, ptr %12, align 8
  %55 = load ptr, ptr %13, align 8
  %56 = load ptr, ptr %19, align 8
  %57 = load ptr, ptr %13, align 8
  %58 = getelementptr inbounds %struct.Expr_, ptr %57, i32 0, i32 0
  %59 = load ptr, ptr %58, align 8
  store ptr %59, ptr %7, align 8
  %60 = load ptr, ptr %7, align 8
  %61 = icmp ne ptr %60, null
  br i1 %61, label %63, label %62

62:                                               ; preds = %52
  store i1 false, ptr %6, align 1
  br label %76

63:                                               ; preds = %52
  %64 = load ptr, ptr %7, align 8
  %65 = load i32, ptr %64, align 8
  store i32 %65, ptr %8, align 4
  %66 = load i32, ptr %8, align 4
  %67 = icmp eq i32 %66, 31
  br i1 %67, label %68, label %73

68:                                               ; preds = %63
  %69 = load ptr, ptr %7, align 8
  %70 = getelementptr inbounds %struct.Type_, ptr %69, i32 0, i32 1
  %71 = load ptr, ptr %70, align 8
  %72 = load i32, ptr %71, align 8
  store i32 %72, ptr %8, align 4
  br label %73

73:                                               ; preds = %68, %63
  %74 = load i32, ptr %8, align 4
  %75 = icmp eq i32 %74, 40
  store i1 %75, ptr %6, align 1
  br label %76

76:                                               ; preds = %73, %62
  %77 = load i1, ptr %6, align 1
  call void @cast_no_check(ptr noundef %54, ptr noundef %55, ptr noundef %56, i1 noundef zeroext %77)
  br label %119

78:                                               ; preds = %33
  %79 = load ptr, ptr %14, align 8
  %80 = getelementptr inbounds %struct.Expr_, ptr %79, i32 0, i32 0
  %81 = load ptr, ptr %80, align 8
  %82 = getelementptr inbounds %struct.Type_, ptr %81, i32 0, i32 0
  %83 = load i32, ptr %82, align 8
  %84 = icmp ult i32 %83, 8
  br i1 %84, label %85, label %89

85:                                               ; preds = %78
  %86 = load i32, ptr %17, align 4
  %87 = zext i32 %86 to i64
  %88 = call ptr @type_int_signed_by_bitsize(i64 noundef %87)
  br label %93

89:                                               ; preds = %78
  %90 = load i32, ptr %17, align 4
  %91 = zext i32 %90 to i64
  %92 = call ptr @type_int_unsigned_by_bitsize(i64 noundef %91)
  br label %93

93:                                               ; preds = %89, %85
  %94 = phi ptr [ %88, %85 ], [ %92, %89 ]
  store ptr %94, ptr %20, align 8
  %95 = load ptr, ptr %12, align 8
  %96 = load ptr, ptr %14, align 8
  %97 = load ptr, ptr %20, align 8
  %98 = load ptr, ptr %14, align 8
  %99 = getelementptr inbounds %struct.Expr_, ptr %98, i32 0, i32 0
  %100 = load ptr, ptr %99, align 8
  store ptr %100, ptr %10, align 8
  %101 = load ptr, ptr %10, align 8
  %102 = icmp ne ptr %101, null
  br i1 %102, label %104, label %103

103:                                              ; preds = %93
  store i1 false, ptr %9, align 1
  br label %117

104:                                              ; preds = %93
  %105 = load ptr, ptr %10, align 8
  %106 = load i32, ptr %105, align 8
  store i32 %106, ptr %11, align 4
  %107 = load i32, ptr %11, align 4
  %108 = icmp eq i32 %107, 31
  br i1 %108, label %109, label %114

109:                                              ; preds = %104
  %110 = load ptr, ptr %10, align 8
  %111 = getelementptr inbounds %struct.Type_, ptr %110, i32 0, i32 1
  %112 = load ptr, ptr %111, align 8
  %113 = load i32, ptr %112, align 8
  store i32 %113, ptr %11, align 4
  br label %114

114:                                              ; preds = %109, %104
  %115 = load i32, ptr %11, align 4
  %116 = icmp eq i32 %115, 40
  store i1 %116, ptr %9, align 1
  br label %117

117:                                              ; preds = %114, %103
  %118 = load i1, ptr %9, align 1
  call void @cast_no_check(ptr noundef %95, ptr noundef %96, ptr noundef %97, i1 noundef zeroext %118)
  br label %119

119:                                              ; preds = %117, %76, %32
  ret void
}