; Function Attrs: nounwind uwtable
define dso_local void @cast_to_int_to_max_bit_size(ptr noundef %0, ptr noundef %1, ptr noundef %2, ptr nocapture noundef readonly %3, ptr nocapture noundef readonly %4) local_unnamed_addr #0 {
  %6 = getelementptr inbounds i8, ptr %3, i64 56
  %7 = load i32, ptr %6, align 8
  %8 = and i32 %7, 255
  %9 = getelementptr inbounds i8, ptr %4, i64 56
  %10 = load i32, ptr %9, align 8
  %11 = and i32 %10, 255
  %12 = icmp eq i32 %8, %11
  br i1 %12, label %59, label %13

13:                                               ; preds = %5
  %14 = icmp ult i32 %8, %11
  br i1 %14, label %15, label %37

15:                                               ; preds = %13
  %16 = load ptr, ptr %1, align 8
  %17 = load i32, ptr %16, align 8
  %18 = icmp ult i32 %17, 8
  %19 = zext nneg i32 %11 to i64
  br i1 %18, label %20, label %22

20:                                               ; preds = %15
  %21 = tail call ptr @type_int_signed_by_bitsize(i64 noundef %19) #10
  br label %24

22:                                               ; preds = %15
  %23 = tail call ptr @type_int_unsigned_by_bitsize(i64 noundef %19) #10
  br label %24

24:                                               ; preds = %22, %20
  %25 = phi ptr [ %21, %20 ], [ %23, %22 ]
  %26 = load ptr, ptr %1, align 8
  %.not40 = icmp eq ptr %26, null
  br i1 %.not40, label %36, label %27

27:                                               ; preds = %24
  %28 = load i32, ptr %26, align 8
  %29 = icmp eq i32 %28, 31
  br i1 %29, label %30, label %34

30:                                               ; preds = %27
  %31 = getelementptr inbounds i8, ptr %26, i64 8
  %32 = load ptr, ptr %31, align 8
  %33 = load i32, ptr %32, align 8
  br label %34

34:                                               ; preds = %30, %27
  %.031 = phi i32 [ %33, %30 ], [ %28, %27 ]
  %35 = icmp eq i32 %.031, 40
  br label %36

36:                                               ; preds = %24, %34
  %.0 = phi i1 [ %35, %34 ], [ false, %24 ]
  tail call void @cast_no_check(ptr noundef %0, ptr noundef nonnull %1, ptr noundef %25, i1 noundef zeroext %.0)
  br label %59

37:                                               ; preds = %13
  %38 = load ptr, ptr %2, align 8
  %39 = load i32, ptr %38, align 8
  %40 = icmp ult i32 %39, 8
  %41 = zext nneg i32 %8 to i64
  br i1 %40, label %42, label %44

42:                                               ; preds = %37
  %43 = tail call ptr @type_int_signed_by_bitsize(i64 noundef %41) #10
  br label %46

44:                                               ; preds = %37
  %45 = tail call ptr @type_int_unsigned_by_bitsize(i64 noundef %41) #10
  br label %46

46:                                               ; preds = %44, %42
  %47 = phi ptr [ %43, %42 ], [ %45, %44 ]
  %48 = load ptr, ptr %2, align 8
  %.not = icmp eq ptr %48, null
  br i1 %.not, label %58, label %49

49:                                               ; preds = %46
  %50 = load i32, ptr %48, align 8
  %51 = icmp eq i32 %50, 31
  br i1 %51, label %52, label %56

52:                                               ; preds = %49
  %53 = getelementptr inbounds i8, ptr %48, i64 8
  %54 = load ptr, ptr %53, align 8
  %55 = load i32, ptr %54, align 8
  br label %56

56:                                               ; preds = %52, %49
  %.033 = phi i32 [ %55, %52 ], [ %50, %49 ]
  %57 = icmp eq i32 %.033, 40
  br label %58

58:                                               ; preds = %46, %56
  %.032 = phi i1 [ %57, %56 ], [ false, %46 ]
  tail call void @cast_no_check(ptr noundef %0, ptr noundef nonnull %2, ptr noundef %47, i1 noundef zeroext %.032)
  br label %59

59:                                               ; preds = %5, %58, %36
  ret void
}